; Function Attrs: mustprogress nounwind uwtable
define dso_local void @_ZN4llvm4yaml5Input13endEnumScalarEv(ptr noundef nonnull align 8 captures(none) dereferenceable(682) %0) unnamed_addr #6 align 2 {
  %2 = alloca %"class.llvm::Twine", align 8
  %3 = getelementptr inbounds nuw i8, ptr %0, i64 680
  %4 = load i8, ptr %3, align 8
  %5 = trunc i8 %4 to i1
  br i1 %5, label %16, label %6

6:                                                ; preds = %1
  %7 = getelementptr inbounds nuw i8, ptr %0, i64 672
  %8 = load ptr, ptr %7, align 8
  %9 = getelementptr inbounds nuw i8, ptr %2, i64 32
  %10 = getelementptr inbounds nuw i8, ptr %2, i64 33
  store i8 1, ptr %10, align 1
  store ptr @.str.5, ptr %2, align 8
  store i8 3, ptr %9, align 8
  %11 = load ptr, ptr %8, align 8
  %12 = getelementptr inbounds nuw i8, ptr %0, i64 80
  %13 = load ptr, ptr %12, align 8
  call void @_ZN4llvm4yaml6Stream10printErrorEPNS0_4NodeERKNS_5TwineENS_9SourceMgr8DiagKindE(ptr noundef nonnull align 8 dereferenceable(16) %13, ptr noundef %11, ptr noundef nonnull align 8 dereferenceable(34) %2, i32 noundef 0) #32
  %14 = tail call noundef nonnull align 8 dereferenceable(8) ptr @_ZNSt3_V216generic_categoryEv() #33
  %15 = getelementptr inbounds nuw i8, ptr %0, i64 96
  store i32 22, ptr %15, align 8
  %.sroa.21.0..sroa_idx.i.i = getelementptr inbounds nuw i8, ptr %0, i64 104
  store ptr %14, ptr %.sroa.21.0..sroa_idx.i.i, align 8
  br label %16

16:                                               ; preds = %6, %1
  ret void
}